target datalayout = "e-m:e-p270:32:32-p271:32:32-p272:64:64-i64:64-i128:128-f80:128-n8:16:32:64-S128"
target triple = "x86_64-pc-linux-gnu"

%"class.jsonnet::internal::CompilerPass" = type { ptr, ptr }
%"class.jsonnet::internal::ClonePass" = type { %"class.jsonnet::internal::CompilerPass" }

; Function Attrs: mustprogress nounwind uwtable
define linkonce_odr void @_ZN7jsonnet8internal12CompilerPassC2ERNS0_9AllocatorE(ptr noundef nonnull align 8 dereferenceable(16) %0, ptr noundef nonnull align 8 dereferenceable(72) %1) unnamed_addr #5 comdat align 2 {
  %3 = alloca ptr, align 8
  %4 = alloca ptr, align 8
  store ptr %0, ptr %3, align 8, !tbaa !21
  store ptr %1, ptr %4, align 8, !tbaa !223
  %5 = load ptr, ptr %3, align 8
  store ptr getelementptr inbounds inrange(-16, 312) ({ [41 x ptr] }, ptr @_ZTVN7jsonnet8internal12CompilerPassE, i32 0, i32 0, i32 2), ptr %5, align 8, !tbaa !27
  %6 = getelementptr inbounds nuw %"class.jsonnet::internal::CompilerPass", ptr %5, i32 0, i32 1
  %7 = load ptr, ptr %4, align 8, !tbaa !223
  store ptr %7, ptr %6, align 8, !tbaa !223
  ret void
}

; Function Attrs: mustprogress uwtable
define linkonce_odr void @_ZN7jsonnet8internal9ClonePassC2ERNS0_9AllocatorE(ptr noundef nonnull align 8 dereferenceable(16) %0, ptr noundef nonnull align 8 dereferenceable(72) %1) unnamed_addr #4 comdat align 2 {
  %3 = alloca ptr, align 8
  %4 = alloca ptr, align 8
  store ptr %0, ptr %3, align 8, !tbaa !218
  store ptr %1, ptr %4, align 8, !tbaa !223
  %5 = load ptr, ptr %3, align 8
  %6 = load ptr, ptr %4, align 8, !tbaa !223
  call void @_ZN7jsonnet8internal12CompilerPassC2ERNS0_9AllocatorE(ptr noundef nonnull align 8 dereferenceable(16) %5, ptr noundef nonnull align 8 dereferenceable(72) %6)
  store ptr getelementptr inbounds inrange(-16, 312) ({ [41 x ptr] }, ptr @_ZTVN7jsonnet8internal9ClonePassE, i32 0, i32 0, i32 2), ptr %5, align 8, !tbaa !27
  ret void
}

; Function Attrs: mustprogress uwtable
define noundef ptr @_ZN7jsonnet8internal9clone_astERNS0_9AllocatorEPNS0_3ASTE(ptr noundef nonnull align 8 dereferenceable(72) %0, ptr noundef %1) #4 {
  %3 = alloca ptr, align 8
  %4 = alloca ptr, align 8
  %5 = alloca ptr, align 8
  %6 = alloca %"class.jsonnet::internal::ClonePass", align 8
  store ptr %0, ptr %3, align 8, !tbaa !223
  store ptr %1, ptr %4, align 8, !tbaa !90
  call void @llvm.lifetime.start.p0(i64 8, ptr %5) #3
  %7 = load ptr, ptr %4, align 8, !tbaa !90
  store ptr %7, ptr %5, align 8, !tbaa !90
  call void @llvm.lifetime.start.p0(i64 16, ptr %6) #3
  %8 = load ptr, ptr %3, align 8, !tbaa !223
  call void @_ZN7jsonnet8internal9ClonePassC2ERNS0_9AllocatorE(ptr noundef nonnull align 8 dereferenceable(16) %6, ptr noundef nonnull align 8 dereferenceable(72) %8)
  call void @_ZN7jsonnet8internal9ClonePass4exprERPNS0_3ASTE(ptr noundef nonnull align 8 dereferenceable(16) %6, ptr noundef nonnull align 8 dereferenceable(8) %5)
  call void @llvm.lifetime.end.p0(i64 16, ptr %6) #3
  %9 = load ptr, ptr %5, align 8, !tbaa !90
  call void @llvm.lifetime.end.p0(i64 8, ptr %5) #3
  ret ptr %9
}