; Function Attrs: mustprogress uwtable
define noundef ptr @_ZN7jsonnet8internal9clone_astERNS0_9AllocatorEPNS0_3ASTE(ptr noundef nonnull align 8 dereferenceable(72) %0, ptr noundef %1) local_unnamed_addr #4 {
  %3 = alloca ptr, align 8
  %4 = alloca %"class.jsonnet::internal::ClonePass", align 8
  call void @llvm.lifetime.start.p0(i64 8, ptr nonnull %3) #22
  store ptr %1, ptr %3, align 8, !tbaa !54
  call void @llvm.lifetime.start.p0(i64 16, ptr nonnull %4) #22
  %5 = getelementptr inbounds nuw i8, ptr %4, i64 8
  store ptr %0, ptr %5, align 8, !tbaa !132
  store ptr getelementptr inbounds nuw inrange(-16, 312) (i8, ptr @_ZTVN7jsonnet8internal9ClonePassE, i64 16), ptr %4, align 8, !tbaa !17
  call void @_ZN7jsonnet8internal9ClonePass4exprERPNS0_3ASTE(ptr noundef nonnull align 8 dereferenceable(16) %4, ptr noundef nonnull align 8 dereferenceable(8) %3)
  call void @llvm.lifetime.end.p0(i64 16, ptr nonnull %4) #22
  %6 = load ptr, ptr %3, align 8, !tbaa !54
  call void @llvm.lifetime.end.p0(i64 8, ptr nonnull %3) #22
  ret ptr %6
}